; Function Attrs: mustprogress nounwind uwtable
define void @_ZN6icu_7531FormattedValueStringBuilderImplD2Ev(ptr noundef nonnull align 8 dereferenceable(300) %this) unnamed_addr #0 align 2 personality ptr @__gxx_personality_v0 {
entry:
  store ptr getelementptr inbounds ({ [8 x ptr] }, ptr @_ZTVN6icu_7531FormattedValueStringBuilderImplE, i64 0, i32 0, i64 2), ptr %this, align 8
  %needToRelease.i.i = getelementptr inbounds i8, ptr %this, i64 164
  %0 = load i8, ptr %needToRelease.i.i, align 4
  %tobool.not.i.i = icmp eq i8 %0, 0
  br i1 %tobool.not.i.i, label %_ZN6icu_7515MaybeStackArrayINS_8SpanInfoELi8EED2Ev.exit, label %if.then.i.i

if.then.i.i:                                      ; preds = %entry
  %spanIndices = getelementptr inbounds i8, ptr %this, i64 152
  %1 = load ptr, ptr %spanIndices, align 8
  invoke void @uprv_free_75(ptr noundef %1)
          to label %_ZN6icu_7515MaybeStackArrayINS_8SpanInfoELi8EED2Ev.exit unwind label %terminate.lpad.i

terminate.lpad.i:                                 ; preds = %if.then.i.i
  %2 = landingpad { ptr, i32 }
          catch ptr null
  %3 = extractvalue { ptr, i32 } %2, 0
  tail call void @__clang_call_terminate(ptr %3) #11
  unreachable

_ZN6icu_7515MaybeStackArrayINS_8SpanInfoELi8EED2Ev.exit: ; preds = %entry, %if.then.i.i
  %fString = getelementptr inbounds i8, ptr %this, i64 8
  tail call void @_ZN6icu_7522FormattedStringBuilderD1Ev(ptr noundef nonnull align 8 dereferenceable(136) %fString) #9
  tail call void @_ZN6icu_7514FormattedValueD2Ev(ptr noundef nonnull align 8 dereferenceable(8) %this) #9
  ret void
}